target datalayout = "e-m:e-p270:32:32-p271:32:32-p272:64:64-i64:64-i128:128-f80:128-n8:16:32:64-S128"
target triple = "x86_64-pc-linux-gnu"

%class.GLibPoller = type { %class.QThread, %class.QMutex, %class.QWaitCondition, ptr, i32, ptr, i32, i32 }
%class.QThread = type { %class.QObject }
%class.QObject = type { ptr, %class.QScopedPointer }
%class.QScopedPointer = type { ptr }
%class.QMutex = type { %class.QBasicMutex }
%class.QBasicMutex = type { %class.QBasicAtomicPointer }
%class.QBasicAtomicPointer = type { %"struct.std::atomic" }
%"struct.std::atomic" = type { %"struct.std::__atomic_base" }
%"struct.std::__atomic_base" = type { ptr }
%class.QWaitCondition = type { ptr }

@.str.2 = private unnamed_addr constant [88 x i8] c"generated/usr/lib/gcc/x86_64-linux-gnu/12/../../../../include/c++/12/bits/atomic_base.h\00", align 1
@__PRETTY_FUNCTION__._ZNKSt13__atomic_baseIP13QMutexPrivateE4loadESt12memory_order = private unnamed_addr constant [102 x i8] c"__pointer_type std::__atomic_base<QMutexPrivate *>::load(memory_order) const [_ITp = QMutexPrivate *]\00", align 1
@.str.3 = private unnamed_addr constant [28 x i8] c"__b != memory_order_release\00", align 1
@.str.4 = private unnamed_addr constant [28 x i8] c"__b != memory_order_acq_rel\00", align 1

; Function Attrs: mustprogress nounwind null_pointer_is_valid sspstrong uwtable
define linkonce_odr noundef i32 @_ZStanSt12memory_orderSt23__memory_order_modifier(i32 noundef %0, i32 noundef %1) #8 comdat {
  %3 = alloca i32, align 4
  %4 = alloca i32, align 4
  store i32 %0, ptr %3, align 4
  store i32 %1, ptr %4, align 4
  %5 = load i32, ptr %3, align 4
  %6 = load i32, ptr %4, align 4
  %7 = and i32 %5, %6
  ret i32 %7
}

; Function Attrs: alwaysinline mustprogress nounwind null_pointer_is_valid sspstrong uwtable
define linkonce_odr noundef ptr @_ZNKSt13__atomic_baseIP13QMutexPrivateE4loadESt12memory_order(ptr noundef align 8 dereferenceable_or_null(8) %0, i32 noundef %1) #14 comdat align 2 personality ptr @__gxx_personality_v0 {
  %3 = alloca ptr, align 8
  %4 = alloca i32, align 4
  %5 = alloca i32, align 4
  %6 = alloca ptr, align 8
  store ptr %0, ptr %3, align 8
  store i32 %1, ptr %4, align 4
  %7 = load ptr, ptr %3, align 8
  call void @llvm.lifetime.start.p0(i64 4, ptr %5) #19
  %8 = load i32, ptr %4, align 4
  %9 = invoke noundef i32 @_ZStanSt12memory_orderSt23__memory_order_modifier(i32 noundef %8, i32 noundef 65535)
          to label %10 unwind label %43

10:                                               ; preds = %2
  store i32 %9, ptr %5, align 4
  br label %11

11:                                               ; preds = %10
  %12 = load i32, ptr %5, align 4
  %13 = icmp ne i32 %12, 3
  %14 = xor i1 %13, true
  %15 = zext i1 %14 to i64
  %16 = call i64 @llvm.expect.i64(i64 %15, i64 0)
  %17 = icmp ne i64 %16, 0
  br i1 %17, label %18, label %19

18:                                               ; preds = %11
  call void @_ZSt21__glibcxx_assert_failPKciS0_S0_(ptr noundef @.str.2, i32 noundef 817, ptr noundef @__PRETTY_FUNCTION__._ZNKSt13__atomic_baseIP13QMutexPrivateE4loadESt12memory_order, ptr noundef @.str.3) #22
  unreachable

19:                                               ; preds = %11
  br label %20

20:                                               ; preds = %19
  br label %21

21:                                               ; preds = %20
  br label %22

22:                                               ; preds = %21
  %23 = load i32, ptr %5, align 4
  %24 = icmp ne i32 %23, 4
  %25 = xor i1 %24, true
  %26 = zext i1 %25 to i64
  %27 = call i64 @llvm.expect.i64(i64 %26, i64 0)
  %28 = icmp ne i64 %27, 0
  br i1 %28, label %29, label %30

29:                                               ; preds = %22
  call void @_ZSt21__glibcxx_assert_failPKciS0_S0_(ptr noundef @.str.2, i32 noundef 818, ptr noundef @__PRETTY_FUNCTION__._ZNKSt13__atomic_baseIP13QMutexPrivateE4loadESt12memory_order, ptr noundef @.str.4) #22
  unreachable

30:                                               ; preds = %22
  br label %31

31:                                               ; preds = %30
  br label %32

32:                                               ; preds = %31
  %33 = getelementptr inbounds nuw %"struct.std::__atomic_base", ptr %7, i32 0, i32 0
  %34 = load i32, ptr %4, align 4
  switch i32 %34, label %35 [
    i32 1, label %37
    i32 2, label %37
    i32 5, label %39
  ]

35:                                               ; preds = %32
  %36 = load atomic i64, ptr %33 monotonic, align 8
  store i64 %36, ptr %6, align 8
  br label %41

37:                                               ; preds = %32, %32
  %38 = load atomic i64, ptr %33 acquire, align 8
  store i64 %38, ptr %6, align 8
  br label %41

39:                                               ; preds = %32
  %40 = load atomic i64, ptr %33 seq_cst, align 8
  store i64 %40, ptr %6, align 8
  br label %41

41:                                               ; preds = %39, %37, %35
  %42 = load ptr, ptr %6, align 8
  call void @llvm.lifetime.end.p0(i64 4, ptr %5) #19
  ret ptr %42

43:                                               ; preds = %2
  %44 = landingpad { ptr, i32 }
          catch ptr null
  %45 = extractvalue { ptr, i32 } %44, 0
  call void @__clang_call_terminate(ptr %45) #22
  unreachable
}

; Function Attrs: mustprogress nounwind null_pointer_is_valid sspstrong uwtable
define linkonce_odr noundef ptr @_ZNKSt6atomicIP13QMutexPrivateE4loadESt12memory_order(ptr noundef align 8 dereferenceable_or_null(8) %0, i32 noundef %1) #8 comdat align 2 {
  %3 = alloca ptr, align 8
  %4 = alloca i32, align 4
  store ptr %0, ptr %3, align 8
  store i32 %1, ptr %4, align 4
  %5 = load ptr, ptr %3, align 8
  %6 = getelementptr inbounds nuw %"struct.std::atomic", ptr %5, i32 0, i32 0
  %7 = load i32, ptr %4, align 4
  %8 = call noundef ptr @_ZNKSt13__atomic_baseIP13QMutexPrivateE4loadESt12memory_order(ptr noundef align 8 dereferenceable_or_null(8) %6, i32 noundef %7) #19
  ret ptr %8
}

; Function Attrs: inlinehint mustprogress nounwind null_pointer_is_valid sspstrong uwtable
define linkonce_odr noundef ptr @_ZN10QAtomicOpsIP13QMutexPrivateE11loadRelaxedIS1_EET_RKSt6atomicIS4_E(ptr noundef align 8 dereferenceable(8) %0) #11 comdat align 2 {
  %2 = alloca ptr, align 8
  store ptr %0, ptr %2, align 8
  %3 = load ptr, ptr %2, align 8
  %4 = call noundef ptr @_ZNKSt6atomicIP13QMutexPrivateE4loadESt12memory_order(ptr noundef align 8 dereferenceable_or_null(8) %3, i32 noundef 0) #19
  ret ptr %4
}

; Function Attrs: mustprogress nounwind null_pointer_is_valid sspstrong uwtable
define linkonce_odr noundef ptr @_ZNK19QBasicAtomicPointerI13QMutexPrivateE11loadRelaxedEv(ptr noundef align 8 dereferenceable_or_null(8) %0) #8 comdat align 2 {
  %2 = alloca ptr, align 8
  store ptr %0, ptr %2, align 8
  %3 = load ptr, ptr %2, align 8
  %4 = getelementptr inbounds nuw %class.QBasicAtomicPointer, ptr %3, i32 0, i32 0
  %5 = call noundef ptr @_ZN10QAtomicOpsIP13QMutexPrivateE11loadRelaxedIS1_EET_RKSt6atomicIS4_E(ptr noundef align 8 dereferenceable(8) %4) #19
  ret ptr %5
}

; Function Attrs: mustprogress nounwind null_pointer_is_valid sspstrong uwtable
define linkonce_odr void @_ZN6QMutexD2Ev(ptr noundef align 8 dereferenceable_or_null(8) %0) unnamed_addr #8 comdat align 2 personality ptr @__gxx_personality_v0 {
  %2 = alloca ptr, align 8
  %3 = alloca ptr, align 8
  store ptr %0, ptr %2, align 8
  %4 = load ptr, ptr %2, align 8
  call void @llvm.lifetime.start.p0(i64 8, ptr %3) #19
  %5 = getelementptr inbounds nuw %class.QBasicMutex, ptr %4, i32 0, i32 0
  %6 = call noundef ptr @_ZNK19QBasicAtomicPointerI13QMutexPrivateE11loadRelaxedEv(ptr noundef align 8 dereferenceable_or_null(8) %5) #19
  store ptr %6, ptr %3, align 8
  %7 = load ptr, ptr %3, align 8
  %8 = icmp ne ptr %7, null
  br i1 %8, label %9, label %12

9:                                                ; preds = %1
  %10 = load ptr, ptr %3, align 8
  invoke void @_ZN11QBasicMutex15destroyInternalEP13QMutexPrivate(ptr noundef align 8 dereferenceable_or_null(8) %4, ptr noundef %10)
          to label %11 unwind label %13

11:                                               ; preds = %9
  br label %12

12:                                               ; preds = %11, %1
  call void @llvm.lifetime.end.p0(i64 8, ptr %3) #19
  ret void

13:                                               ; preds = %9
  %14 = landingpad { ptr, i32 }
          catch ptr null
  %15 = extractvalue { ptr, i32 } %14, 0
  call void @__clang_call_terminate(ptr %15) #22
  unreachable
}

; Function Attrs: mustprogress nounwind null_pointer_is_valid sspstrong uwtable
define void @_ZN10GLibPollerD2Ev(ptr noundef align 8 dereferenceable_or_null(64) %0) unnamed_addr #8 align 2 personality ptr @__gxx_personality_v0 {
  %2 = alloca ptr, align 8
  store ptr %0, ptr %2, align 8
  %3 = load ptr, ptr %2, align 8
  store ptr getelementptr inbounds inrange(-16, 104) ({ [15 x ptr] }, ptr @_ZTV10GLibPoller, i32 0, i32 0, i32 2), ptr %3, align 8
  %4 = getelementptr inbounds nuw %class.GLibPoller, ptr %3, i32 0, i32 3
  %5 = load ptr, ptr %4, align 8
  invoke void @g_main_context_unref(ptr noundef %5)
          to label %6 unwind label %12

6:                                                ; preds = %1
  %7 = getelementptr inbounds nuw %class.GLibPoller, ptr %3, i32 0, i32 5
  %8 = load ptr, ptr %7, align 8
  invoke void @g_free(ptr noundef %8)
          to label %9 unwind label %12

9:                                                ; preds = %6
  %10 = getelementptr inbounds nuw %class.GLibPoller, ptr %3, i32 0, i32 2
  call void @_ZN14QWaitConditionD1Ev(ptr noundef align 8 dereferenceable_or_null(8) %10) #19
  %11 = getelementptr inbounds nuw %class.GLibPoller, ptr %3, i32 0, i32 1
  call void @_ZN6QMutexD2Ev(ptr noundef align 8 dereferenceable_or_null(8) %11) #19
  call void @_ZN7QThreadD2Ev(ptr noundef align 8 dereferenceable_or_null(16) %3) #19
  ret void

12:                                               ; preds = %6, %1
  %13 = landingpad { ptr, i32 }
          catch ptr null
  %14 = extractvalue { ptr, i32 } %13, 0
  call void @__clang_call_terminate(ptr %14) #22
  unreachable
}