; Function Attrs: mustprogress nounwind null_pointer_is_valid sspstrong uwtable
define void @_ZN10GLibPollerD2Ev(ptr noundef align 8 dereferenceable_or_null(64) initializes((0, 8)) %0) unnamed_addr #7 align 2 personality ptr @__gxx_personality_v0 {
  store ptr getelementptr inbounds nuw inrange(-16, 104) (i8, ptr @_ZTV10GLibPoller, i64 16), ptr %0, align 8
  %2 = getelementptr inbounds nuw i8, ptr %0, i64 32
  %3 = load ptr, ptr %2, align 8
  invoke void @g_main_context_unref(ptr noundef %3)
          to label %4 unwind label %15

4:                                                ; preds = %1
  %5 = getelementptr inbounds nuw i8, ptr %0, i64 48
  %6 = load ptr, ptr %5, align 8
  invoke void @g_free(ptr noundef %6)
          to label %7 unwind label %15

7:                                                ; preds = %4
  %8 = getelementptr inbounds nuw i8, ptr %0, i64 24
  tail call void @_ZN14QWaitConditionD1Ev(ptr noundef nonnull align 8 dereferenceable_or_null(8) %8) #14
  %9 = getelementptr inbounds nuw i8, ptr %0, i64 16
  %10 = load atomic i64, ptr %9 monotonic, align 8
  %.not.i = icmp eq i64 %10, 0
  br i1 %.not.i, label %_ZN6QMutexD2Ev.exit, label %11

11:                                               ; preds = %7
  %.0.i.i.i.i.i = inttoptr i64 %10 to ptr
  invoke void @_ZN11QBasicMutex15destroyInternalEP13QMutexPrivate(ptr noundef nonnull align 8 dereferenceable_or_null(8) %9, ptr noundef nonnull %.0.i.i.i.i.i)
          to label %_ZN6QMutexD2Ev.exit unwind label %12

12:                                               ; preds = %11
  %13 = landingpad { ptr, i32 }
          catch ptr null
  %14 = extractvalue { ptr, i32 } %13, 0
  tail call void @__clang_call_terminate(ptr %14) #15
  unreachable

_ZN6QMutexD2Ev.exit:                              ; preds = %7, %11
  tail call void @_ZN7QThreadD2Ev(ptr noundef align 8 dereferenceable_or_null(16) %0) #14
  ret void

15:                                               ; preds = %4, %1
  %16 = landingpad { ptr, i32 }
          catch ptr null
  %17 = extractvalue { ptr, i32 } %16, 0
  tail call void @__clang_call_terminate(ptr %17) #15
  unreachable
}